; Function Attrs: nounwind uwtable
define ptr @l_Lean_Elab_Command_elabAxiom(ptr noundef %0, ptr noundef %1, ptr noundef %2, ptr noundef %3, ptr noundef %4) local_unnamed_addr #0 {
  %6 = tail call ptr @l_Lean_Syntax_getArg(ptr noundef %1, ptr noundef nonnull inttoptr (i64 3 to ptr)) #6
  %7 = tail call ptr @l_Lean_Syntax_getArg(ptr noundef %1, ptr noundef nonnull inttoptr (i64 5 to ptr)) #6
  %8 = tail call ptr @l_Lean_Elab_expandDeclSig(ptr noundef %7) #6
  %9 = ptrtoint ptr %7 to i64
  %10 = and i64 %9, 1
  %.not = icmp eq i64 %10, 0
  br i1 %.not, label %11, label %lean_dec.exit27

11:                                               ; preds = %5
  %12 = load i32, ptr %7, align 4, !tbaa !4
  %13 = icmp sgt i32 %12, 1
  br i1 %13, label %14, label %16, !prof !11

14:                                               ; preds = %11
  %15 = add nsw i32 %12, -1
  store i32 %15, ptr %7, align 4, !tbaa !4
  br label %lean_dec.exit27

16:                                               ; preds = %11
  %.not.i = icmp eq i32 %12, 0
  br i1 %.not.i, label %lean_dec.exit27, label %17

17:                                               ; preds = %16
  tail call void @lean_dec_ref_cold(ptr noundef nonnull %7) #6
  br label %lean_dec.exit27

lean_dec.exit27:                                  ; preds = %17, %16, %14, %5
  %18 = getelementptr inbounds nuw i8, ptr %8, i64 8
  %19 = load ptr, ptr %18, align 8, !tbaa !9
  %20 = ptrtoint ptr %19 to i64
  %21 = and i64 %20, 1
  %.not34 = icmp eq i64 %21, 0
  br i1 %.not34, label %22, label %lean_inc.exit26

22:                                               ; preds = %lean_dec.exit27
  %.val.i = load i32, ptr %19, align 4, !tbaa !4
  %23 = icmp sgt i32 %.val.i, 0
  br i1 %23, label %24, label %26, !prof !11

24:                                               ; preds = %22
  %25 = add nuw i32 %.val.i, 1
  store i32 %25, ptr %19, align 4, !tbaa !4
  br label %lean_inc.exit26

26:                                               ; preds = %22
  %.not.i30 = icmp eq i32 %.val.i, 0
  br i1 %.not.i30, label %lean_inc.exit26, label %27

27:                                               ; preds = %26
  tail call void @lean_inc_ref_cold(ptr noundef nonnull %19) #6
  br label %lean_inc.exit26

lean_inc.exit26:                                  ; preds = %27, %26, %24, %lean_dec.exit27
  %28 = getelementptr inbounds nuw i8, ptr %8, i64 16
  %29 = load ptr, ptr %28, align 8, !tbaa !9
  %30 = ptrtoint ptr %29 to i64
  %31 = and i64 %30, 1
  %.not35 = icmp eq i64 %31, 0
  br i1 %.not35, label %32, label %lean_inc.exit

32:                                               ; preds = %lean_inc.exit26
  %.val.i31 = load i32, ptr %29, align 4, !tbaa !4
  %33 = icmp sgt i32 %.val.i31, 0
  br i1 %33, label %34, label %36, !prof !11

34:                                               ; preds = %32
  %35 = add nuw i32 %.val.i31, 1
  store i32 %35, ptr %29, align 4, !tbaa !4
  br label %lean_inc.exit

36:                                               ; preds = %32
  %.not.i32 = icmp eq i32 %.val.i31, 0
  br i1 %.not.i32, label %lean_inc.exit, label %37

37:                                               ; preds = %36
  tail call void @lean_inc_ref_cold(ptr noundef nonnull %29) #6
  br label %lean_inc.exit

lean_inc.exit:                                    ; preds = %37, %36, %34, %lean_inc.exit26
  %38 = ptrtoint ptr %8 to i64
  %39 = and i64 %38, 1
  %.not36 = icmp eq i64 %39, 0
  br i1 %.not36, label %40, label %lean_dec.exit

40:                                               ; preds = %lean_inc.exit
  %41 = load i32, ptr %8, align 4, !tbaa !4
  %42 = icmp sgt i32 %41, 1
  br i1 %42, label %43, label %45, !prof !11

43:                                               ; preds = %40
  %44 = add nsw i32 %41, -1
  store i32 %44, ptr %8, align 4, !tbaa !4
  br label %lean_dec.exit

45:                                               ; preds = %40
  %.not.i28 = icmp eq i32 %41, 0
  br i1 %.not.i28, label %lean_dec.exit, label %46

46:                                               ; preds = %45
  tail call void @lean_dec_ref_cold(ptr noundef nonnull %8) #6
  br label %lean_dec.exit

lean_dec.exit:                                    ; preds = %46, %45, %43, %lean_inc.exit
  tail call void @lean_inc_heartbeat() #6
  %47 = tail call noalias ptr @mi_malloc_small(i64 noundef 64) #6
  %48 = icmp eq ptr %47, null
  br i1 %48, label %49, label %lean_alloc_closure.exit

49:                                               ; preds = %lean_dec.exit
  tail call void @lean_internal_panic_out_of_memory() #7
  unreachable

lean_alloc_closure.exit:                          ; preds = %lean_dec.exit
  %50 = getelementptr inbounds nuw i8, ptr %47, i64 4
  store i32 1, ptr %47, align 4, !tbaa !4
  store i32 -184549312, ptr %50, align 4
  %51 = getelementptr inbounds nuw i8, ptr %47, i64 8
  store ptr @l_Lean_Elab_Command_elabAxiom___lambda__5___boxed, ptr %51, align 8, !tbaa !9
  %52 = getelementptr inbounds nuw i8, ptr %47, i64 16
  store i16 13, ptr %52, align 8, !tbaa !14
  %53 = getelementptr inbounds nuw i8, ptr %47, i64 18
  store i16 5, ptr %53, align 2, !tbaa !14
  %54 = getelementptr inbounds nuw i8, ptr %47, i64 24
  store ptr %6, ptr %54, align 8, !tbaa !9
  %55 = getelementptr inbounds nuw i8, ptr %47, i64 32
  store ptr %0, ptr %55, align 8, !tbaa !9
  %56 = getelementptr inbounds nuw i8, ptr %47, i64 40
  store ptr %1, ptr %56, align 8, !tbaa !9
  %57 = getelementptr inbounds nuw i8, ptr %47, i64 48
  store ptr %19, ptr %57, align 8, !tbaa !9
  %58 = getelementptr inbounds nuw i8, ptr %47, i64 56
  store ptr %29, ptr %58, align 8, !tbaa !9
  %59 = tail call ptr @l_Lean_Elab_Command_runTermElabM___rarg(ptr noundef nonnull %47, ptr noundef %2, ptr noundef %3, ptr noundef %4) #6
  ret ptr %59
}